; Function Attrs: mustprogress nofree norecurse nosync nounwind willreturn memory(readwrite, inaccessiblemem: none) uwtable
define dso_local void @core_yy_flush_buffer(ptr noundef captures(address) %0, ptr noundef captures(none) %1) local_unnamed_addr #8 {
  %.not = icmp eq ptr %0, null
  br i1 %.not, label %.thread, label %3

3:                                                ; preds = %2
  %4 = getelementptr inbounds nuw i8, ptr %0, i64 28
  store i32 0, ptr %4, align 4
  %5 = getelementptr inbounds nuw i8, ptr %0, i64 8
  %6 = load ptr, ptr %5, align 8
  store i8 0, ptr %6, align 1
  %7 = load ptr, ptr %5, align 8
  %8 = getelementptr inbounds nuw i8, ptr %7, i64 1
  store i8 0, ptr %8, align 1
  %9 = load ptr, ptr %5, align 8
  %10 = getelementptr inbounds nuw i8, ptr %0, i64 16
  store ptr %9, ptr %10, align 8
  %11 = getelementptr inbounds nuw i8, ptr %0, i64 40
  store i32 1, ptr %11, align 8
  %12 = getelementptr inbounds nuw i8, ptr %0, i64 56
  store i32 0, ptr %12, align 8
  %13 = getelementptr inbounds nuw i8, ptr %1, i64 40
  %14 = load ptr, ptr %13, align 8
  %.not15 = icmp eq ptr %14, null
  br i1 %.not15, label %.thread, label %15

15:                                               ; preds = %3
  %16 = getelementptr inbounds nuw i8, ptr %1, i64 24
  %17 = load i64, ptr %16, align 8
  %18 = getelementptr inbounds nuw ptr, ptr %14, i64 %17
  %19 = load ptr, ptr %18, align 8
  %20 = icmp eq ptr %0, %19
  br i1 %20, label %21, label %.thread

21:                                               ; preds = %15
  %22 = getelementptr inbounds nuw i8, ptr %19, i64 28
  %23 = load i32, ptr %22, align 4
  %24 = getelementptr inbounds nuw i8, ptr %1, i64 52
  store i32 %23, ptr %24, align 4
  %25 = load ptr, ptr %18, align 8
  %26 = getelementptr inbounds nuw i8, ptr %25, i64 16
  %27 = load ptr, ptr %26, align 8
  %28 = getelementptr inbounds nuw i8, ptr %1, i64 64
  store ptr %27, ptr %28, align 8
  %29 = getelementptr inbounds nuw i8, ptr %1, i64 128
  store ptr %27, ptr %29, align 8
  %30 = load ptr, ptr %18, align 8
  %31 = load ptr, ptr %30, align 8
  %32 = getelementptr inbounds nuw i8, ptr %1, i64 8
  store ptr %31, ptr %32, align 8
  %33 = load i8, ptr %27, align 1
  %34 = getelementptr inbounds nuw i8, ptr %1, i64 48
  store i8 %33, ptr %34, align 8
  br label %.thread

.thread:                                          ; preds = %3, %15, %21, %2
  ret void
}